; Function Attrs: nounwind uwtable
define dso_local void @SpGistInitMetapage(ptr noundef %0) local_unnamed_addr #0 {
  tail call void @PageInit(ptr noundef %0, i64 noundef 8192, i64 noundef 8) #10
  %2 = getelementptr inbounds nuw i8, ptr %0, i64 16
  %3 = load i16, ptr %2, align 4
  %4 = zext i16 %3 to i64
  %5 = getelementptr inbounds nuw i8, ptr %0, i64 %4
  store i16 1, ptr %5, align 2
  %6 = getelementptr inbounds nuw i8, ptr %5, i64 6
  store i16 -126, ptr %6, align 2
  %7 = getelementptr inbounds nuw i8, ptr %0, i64 24
  %8 = getelementptr inbounds nuw i8, ptr %0, i64 28
  tail call void @llvm.memset.p0.i64(ptr noundef nonnull align 4 dereferenceable(68) %8, i8 0, i64 64, i1 false)
  store i32 -1173640210, ptr %7, align 4
  %9 = getelementptr inbounds nuw i8, ptr %0, i64 28
  br label %10

10:                                               ; preds = %1, %10
  %indvars.iv = phi i64 [ 0, %1 ], [ %indvars.iv.next, %10 ]
  %11 = getelementptr inbounds nuw [8 x %struct.SpGistLastUsedPage], ptr %9, i64 0, i64 %indvars.iv
  store i32 -1, ptr %11, align 4
  %indvars.iv.next = add nuw nsw i64 %indvars.iv, 1
  %exitcond.not = icmp eq i64 %indvars.iv.next, 8
  br i1 %exitcond.not, label %12, label %10, !llvm.loop !10

12:                                               ; preds = %10
  %13 = getelementptr inbounds nuw i8, ptr %0, i64 12
  store i16 92, ptr %13, align 4
  ret void
}